target datalayout = "e-m:e-p270:32:32-p271:32:32-p272:64:64-i64:64-i128:128-f80:128-n8:16:32:64-S128"
target triple = "x86_64-unknown-linux-gnu"

%"class.llvh::StringRef" = type { ptr, i64 }
%"class.llvh::ArrayRef" = type { ptr, i64 }

; Function Attrs: mustprogress nounwind uwtable
define linkonce_odr hidden void @_ZN4llvh8ArrayRefIPN6hermes5ValueEEC2ERKS3_(ptr noundef nonnull align 8 dereferenceable(16) %this, ptr noundef nonnull align 8 dereferenceable(8) %OneElt) unnamed_addr #0 comdat align 2 {
entry:
  %this.addr = alloca ptr, align 8
  %OneElt.addr = alloca ptr, align 8
  store ptr %this, ptr %this.addr, align 8
  store ptr %OneElt, ptr %OneElt.addr, align 8
  %this1 = load ptr, ptr %this.addr, align 8
  %Data = getelementptr inbounds %"class.llvh::ArrayRef", ptr %this1, i32 0, i32 0
  %0 = load ptr, ptr %OneElt.addr, align 8
  store ptr %0, ptr %Data, align 8
  %Length = getelementptr inbounds %"class.llvh::ArrayRef", ptr %this1, i32 0, i32 1
  store i64 1, ptr %Length, align 8
  ret void
}

; Function Attrs: mustprogress nounwind uwtable
define hidden noundef ptr @_ZN6hermes5irgen11ESTreeIRGen19genRaiseNativeErrorERNS_9IRBuilderENS_16NativeErrorTypesEN4llvh9StringRefE(ptr noundef nonnull align 8 dereferenceable(40) %builder, i8 noundef zeroext %id, ptr %msg.coerce0, i64 %msg.coerce1) #0 align 2 {
entry:
  %msg = alloca %"class.llvh::StringRef", align 8
  %builder.addr = alloca ptr, align 8
  %id.addr = alloca i8, align 1
  %agg.tmp = alloca %"class.llvh::ArrayRef", align 8
  %ref.tmp = alloca ptr, align 8
  %agg.tmp4 = alloca %"class.llvh::ArrayRef", align 8
  %ref.tmp5 = alloca ptr, align 8
  %agg.tmp6 = alloca %"class.llvh::StringRef", align 8
  %0 = getelementptr inbounds { ptr, i64 }, ptr %msg, i32 0, i32 0
  store ptr %msg.coerce0, ptr %0, align 8
  %1 = getelementptr inbounds { ptr, i64 }, ptr %msg, i32 0, i32 1
  store i64 %msg.coerce1, ptr %1, align 8
  store ptr %builder, ptr %builder.addr, align 8
  store i8 %id, ptr %id.addr, align 1
  %2 = load ptr, ptr %builder.addr, align 8
  %3 = load ptr, ptr %builder.addr, align 8
  %4 = load ptr, ptr %builder.addr, align 8
  %5 = load ptr, ptr %builder.addr, align 8
  %6 = load i8, ptr %id.addr, align 1
  %conv = zext i8 %6 to i32
  %conv1 = uitofp i32 %conv to double
  %call = call noundef ptr @_ZN6hermes9IRBuilder16getLiteralNumberEd(ptr noundef nonnull align 8 dereferenceable(40) %5, double noundef %conv1)
  store ptr %call, ptr %ref.tmp, align 8
  call void @_ZN4llvh8ArrayRefIPN6hermes5ValueEEC2ERKS3_(ptr noundef nonnull align 8 dereferenceable(16) %agg.tmp, ptr noundef nonnull align 8 dereferenceable(8) %ref.tmp)
  %7 = getelementptr inbounds { ptr, i64 }, ptr %agg.tmp, i32 0, i32 0
  %8 = load ptr, ptr %7, align 8
  %9 = getelementptr inbounds { ptr, i64 }, ptr %agg.tmp, i32 0, i32 1
  %10 = load i64, ptr %9, align 8
  %call2 = call noundef ptr @_ZN6hermes9IRBuilder21createCallBuiltinInstENS_13BuiltinMethod4EnumEN4llvh8ArrayRefIPNS_5ValueEEE(ptr noundef nonnull align 8 dereferenceable(40) %4, i8 noundef zeroext 51, ptr %8, i64 %10)
  %11 = icmp eq ptr %call2, null
  br i1 %11, label %cast.end, label %cast.notnull

cast.notnull:                                     ; preds = %entry
  %add.ptr = getelementptr inbounds i8, ptr %call2, i64 16
  br label %cast.end

cast.end:                                         ; preds = %cast.notnull, %entry
  %cast.result = phi ptr [ %add.ptr, %cast.notnull ], [ null, %entry ]
  %12 = load ptr, ptr %builder.addr, align 8
  %call3 = call noundef ptr @_ZN6hermes9IRBuilder19getLiteralUndefinedEv(ptr noundef nonnull align 8 dereferenceable(40) %12)
  %13 = load ptr, ptr %builder.addr, align 8
  call void @llvm.memcpy.p0.p0.i64(ptr align 8 %agg.tmp6, ptr align 8 %msg, i64 16, i1 false)
  %14 = getelementptr inbounds { ptr, i64 }, ptr %agg.tmp6, i32 0, i32 0
  %15 = load ptr, ptr %14, align 8
  %16 = getelementptr inbounds { ptr, i64 }, ptr %agg.tmp6, i32 0, i32 1
  %17 = load i64, ptr %16, align 8
  %call7 = call noundef ptr @_ZN6hermes9IRBuilder16getLiteralStringEN4llvh9StringRefE(ptr noundef nonnull align 8 dereferenceable(40) %13, ptr %15, i64 %17)
  store ptr %call7, ptr %ref.tmp5, align 8
  call void @_ZN4llvh8ArrayRefIPN6hermes5ValueEEC2ERKS3_(ptr noundef nonnull align 8 dereferenceable(16) %agg.tmp4, ptr noundef nonnull align 8 dereferenceable(8) %ref.tmp5)
  %18 = getelementptr inbounds { ptr, i64 }, ptr %agg.tmp4, i32 0, i32 0
  %19 = load ptr, ptr %18, align 8
  %20 = getelementptr inbounds { ptr, i64 }, ptr %agg.tmp4, i32 0, i32 1
  %21 = load i64, ptr %20, align 8
  %call8 = call noundef ptr @_ZN6hermes9IRBuilder14createCallInstEPNS_13LiteralStringEPNS_5ValueES4_N4llvh8ArrayRefIS4_EE(ptr noundef nonnull align 8 dereferenceable(40) %3, ptr noundef null, ptr noundef %cast.result, ptr noundef %call3, ptr %19, i64 %21)
  %22 = icmp eq ptr %call8, null
  br i1 %22, label %cast.end11, label %cast.notnull9

cast.notnull9:                                    ; preds = %cast.end
  %add.ptr10 = getelementptr inbounds i8, ptr %call8, i64 16
  br label %cast.end11

cast.end11:                                       ; preds = %cast.notnull9, %cast.end
  %cast.result12 = phi ptr [ %add.ptr10, %cast.notnull9 ], [ null, %cast.end ]
  %call13 = call noundef ptr @_ZN6hermes9IRBuilder15createThrowInstEPNS_5ValueE(ptr noundef nonnull align 8 dereferenceable(40) %2, ptr noundef %cast.result12)
  ret ptr %call13
}