; Function Attrs: mustprogress nounwind uwtable
define hidden noundef ptr @_ZN6hermes5irgen11ESTreeIRGen19genRaiseNativeErrorERNS_9IRBuilderENS_16NativeErrorTypesEN4llvh9StringRefE(ptr noundef nonnull align 8 dereferenceable(40) %builder, i8 noundef zeroext %id, ptr %msg.coerce0, i64 %msg.coerce1) local_unnamed_addr #0 align 2 {
entry:
  %ref.tmp = alloca ptr, align 8
  %ref.tmp5 = alloca ptr, align 8
  %conv1 = uitofp i8 %id to double
  %call = tail call noundef ptr @_ZN6hermes9IRBuilder16getLiteralNumberEd(ptr noundef nonnull align 8 dereferenceable(40) %builder, double noundef %conv1) #15
  store ptr %call, ptr %ref.tmp, align 8
  %call2 = call noundef ptr @_ZN6hermes9IRBuilder21createCallBuiltinInstENS_13BuiltinMethod4EnumEN4llvh8ArrayRefIPNS_5ValueEEE(ptr noundef nonnull align 8 dereferenceable(40) %builder, i8 noundef zeroext 51, ptr nonnull %ref.tmp, i64 1) #15
  %0 = icmp eq ptr %call2, null
  %add.ptr = getelementptr inbounds i8, ptr %call2, i64 16
  %spec.select = select i1 %0, ptr null, ptr %add.ptr
  %call3 = call noundef ptr @_ZN6hermes9IRBuilder19getLiteralUndefinedEv(ptr noundef nonnull align 8 dereferenceable(40) %builder) #15
  %call7 = call noundef ptr @_ZN6hermes9IRBuilder16getLiteralStringEN4llvh9StringRefE(ptr noundef nonnull align 8 dereferenceable(40) %builder, ptr %msg.coerce0, i64 %msg.coerce1) #15
  store ptr %call7, ptr %ref.tmp5, align 8
  %call8 = call noundef ptr @_ZN6hermes9IRBuilder14createCallInstEPNS_13LiteralStringEPNS_5ValueES4_N4llvh8ArrayRefIS4_EE(ptr noundef nonnull align 8 dereferenceable(40) %builder, ptr noundef null, ptr noundef %spec.select, ptr noundef %call3, ptr nonnull %ref.tmp5, i64 1) #15
  %1 = icmp eq ptr %call8, null
  %add.ptr10 = getelementptr inbounds i8, ptr %call8, i64 16
  %cast.result12 = select i1 %1, ptr null, ptr %add.ptr10
  %call13 = call noundef ptr @_ZN6hermes9IRBuilder15createThrowInstEPNS_5ValueE(ptr noundef nonnull align 8 dereferenceable(40) %builder, ptr noundef %cast.result12) #15
  ret ptr %call13
}